; Function Attrs: mustprogress uwtable
define i64 @_ZN8QuantLib4Date7minDateEv() local_unnamed_addr #4 align 2 personality ptr @__gxx_personality_v0 {
entry:
  %0 = load atomic i8, ptr @_ZGVZN8QuantLib4Date7minDateEvE11minimumDate acquire, align 8
  %guard.uninitialized = icmp eq i8 %0, 0
  br i1 %guard.uninitialized, label %init.check, label %init.end, !prof !33

init.check:                                       ; preds = %entry
  %1 = tail call i32 @__cxa_guard_acquire(ptr nonnull @_ZGVZN8QuantLib4Date7minDateEvE11minimumDate) #29
  %tobool.not = icmp eq i32 %1, 0
  br i1 %tobool.not, label %init.end, label %init

init:                                             ; preds = %init.check
  invoke void @_ZN8QuantLib4DateC1El(ptr noundef nonnull align 8 dereferenceable(8) @_ZZN8QuantLib4Date7minDateEvE11minimumDate, i64 noundef 367)
          to label %invoke.cont unwind label %lpad

invoke.cont:                                      ; preds = %init
  %2 = tail call ptr @llvm.invariant.start.p0(i64 8, ptr nonnull @_ZZN8QuantLib4Date7minDateEvE11minimumDate)
  tail call void @__cxa_guard_release(ptr nonnull @_ZGVZN8QuantLib4Date7minDateEvE11minimumDate) #29
  br label %init.end

init.end:                                         ; preds = %invoke.cont, %init.check, %entry
  %retval.sroa.0.0.copyload = load i64, ptr @_ZZN8QuantLib4Date7minDateEvE11minimumDate, align 8, !tbaa !16
  ret i64 %retval.sroa.0.0.copyload

lpad:                                             ; preds = %init
  %3 = landingpad { ptr, i32 }
          cleanup
  tail call void @__cxa_guard_abort(ptr nonnull @_ZGVZN8QuantLib4Date7minDateEvE11minimumDate) #29
  resume { ptr, i32 } %3
}